target datalayout = "e-m:e-p270:32:32-p271:32:32-p272:64:64-i64:64-i128:128-f80:128-n8:16:32:64-S128"
target triple = "x86_64-pc-linux-gnu"

%struct._fvalue_t = type { ptr, %union.anon.1 }
%union.anon.1 = type { %struct._protocol_value_t }
%struct._protocol_value_t = type { ptr, i32, ptr, i8 }

@.str.20 = private unnamed_addr constant [3 x i8] c"\22\22\00", align 1
@.str.21 = private unnamed_addr constant [1 x i8] zeroinitializer, align 1

; Function Attrs: null_pointer_is_valid sspstrong uwtable
define hidden ptr @bytes_to_dfilter_repr(ptr noundef %0, ptr noundef %1, i64 noundef %2) #0 {
  %4 = alloca ptr, align 8
  %5 = alloca ptr, align 8
  %6 = alloca i64, align 8
  %7 = alloca ptr, align 8
  %8 = alloca i64, align 8
  %9 = alloca ptr, align 8
  store ptr %0, ptr %4, align 8
  store ptr %1, ptr %5, align 8
  store i64 %2, ptr %6, align 8
  call void @llvm.lifetime.start.p0(i64 8, ptr %7) #9
  call void @llvm.lifetime.start.p0(i64 8, ptr %8) #9
  call void @llvm.lifetime.start.p0(i64 8, ptr %9) #9
  %10 = load i64, ptr %6, align 8
  %11 = mul i64 %10, 3
  %12 = add i64 %11, 1
  store i64 %12, ptr %8, align 8
  %13 = load ptr, ptr %4, align 8
  %14 = load i64, ptr %8, align 8
  %15 = call noalias ptr @wmem_alloc(ptr noundef %13, i64 noundef %14) #10
  store ptr %15, ptr %7, align 8
  %16 = load ptr, ptr %7, align 8
  %17 = load ptr, ptr %5, align 8
  %18 = load i64, ptr %6, align 8
  %19 = call ptr @bytes_to_hexstr_punct(ptr noundef %16, ptr noundef %17, i64 noundef %18, i8 noundef signext 58)
  store ptr %19, ptr %9, align 8
  %20 = load i64, ptr %6, align 8
  %21 = icmp eq i64 %20, 1
  br i1 %21, label %22, label %25

22:                                               ; preds = %3
  %23 = load ptr, ptr %9, align 8
  %24 = getelementptr i8, ptr %23, i32 1
  store ptr %24, ptr %9, align 8
  store i8 58, ptr %23, align 1
  br label %25

25:                                               ; preds = %22, %3
  %26 = load ptr, ptr %9, align 8
  store i8 0, ptr %26, align 1
  %27 = load ptr, ptr %7, align 8
  call void @llvm.lifetime.end.p0(i64 8, ptr %9) #9
  call void @llvm.lifetime.end.p0(i64 8, ptr %8) #9
  call void @llvm.lifetime.end.p0(i64 8, ptr %7) #9
  ret ptr %27
}

; Function Attrs: null_pointer_is_valid sspstrong uwtable
define internal ptr @bytes_to_repr(ptr noundef %0, ptr noundef %1, i32 noundef %2, i32 noundef %3) #0 {
  %5 = alloca ptr, align 8
  %6 = alloca ptr, align 8
  %7 = alloca ptr, align 8
  %8 = alloca i32, align 4
  %9 = alloca i32, align 4
  %10 = alloca i8, align 1
  %11 = alloca ptr, align 8
  %12 = alloca i64, align 8
  %13 = alloca i32, align 4
  store ptr %0, ptr %6, align 8
  store ptr %1, ptr %7, align 8
  store i32 %2, ptr %8, align 4
  store i32 %3, ptr %9, align 4
  call void @llvm.lifetime.start.p0(i64 1, ptr %10) #9
  call void @llvm.lifetime.start.p0(i64 8, ptr %11) #9
  call void @llvm.lifetime.start.p0(i64 8, ptr %12) #9
  %14 = load ptr, ptr %7, align 8
  %15 = getelementptr inbounds nuw %struct._fvalue_t, ptr %14, i32 0, i32 1
  %16 = load ptr, ptr %15, align 8
  %17 = call ptr @g_bytes_get_data(ptr noundef %16, ptr noundef %12)
  store ptr %17, ptr %11, align 8
  %18 = load i32, ptr %8, align 4
  %19 = icmp eq i32 %18, 1
  br i1 %19, label %20, label %31

20:                                               ; preds = %4
  %21 = load i64, ptr %12, align 8
  %22 = icmp eq i64 %21, 0
  br i1 %22, label %23, label %26

23:                                               ; preds = %20
  %24 = load ptr, ptr %6, align 8
  %25 = call noalias ptr @wmem_strdup(ptr noundef %24, ptr noundef @.str.20)
  store ptr %25, ptr %5, align 8
  store i32 1, ptr %13, align 4
  br label %50

26:                                               ; preds = %20
  %27 = load ptr, ptr %6, align 8
  %28 = load ptr, ptr %11, align 8
  %29 = load i64, ptr %12, align 8
  %30 = call ptr @bytes_to_dfilter_repr(ptr noundef %27, ptr noundef %28, i64 noundef %29)
  store ptr %30, ptr %5, align 8
  store i32 1, ptr %13, align 4
  br label %50

31:                                               ; preds = %4
  %32 = load i32, ptr %9, align 4
  %33 = and i32 %32, 255
  switch i32 %33, label %37 [
    i32 8, label %34
    i32 9, label %35
    i32 11, label %36
    i32 10, label %36
    i32 0, label %36
  ]

34:                                               ; preds = %31
  store i8 46, ptr %10, align 1
  br label %38

35:                                               ; preds = %31
  store i8 45, ptr %10, align 1
  br label %38

36:                                               ; preds = %31, %31, %31
  br label %37

37:                                               ; preds = %31, %36
  store i8 58, ptr %10, align 1
  br label %38

38:                                               ; preds = %37, %35, %34
  %39 = load i64, ptr %12, align 8
  %40 = icmp ne i64 %39, 0
  br i1 %40, label %41, label %47

41:                                               ; preds = %38
  %42 = load ptr, ptr %6, align 8
  %43 = load ptr, ptr %11, align 8
  %44 = load i64, ptr %12, align 8
  %45 = load i8, ptr %10, align 1
  %46 = call ptr @bytes_to_str_punct_maxlen(ptr noundef %42, ptr noundef %43, i64 noundef %44, i8 noundef signext %45, i64 noundef 0)
  store ptr %46, ptr %5, align 8
  store i32 1, ptr %13, align 4
  br label %50

47:                                               ; preds = %38
  %48 = load ptr, ptr %6, align 8
  %49 = call noalias ptr @wmem_strdup(ptr noundef %48, ptr noundef @.str.21)
  store ptr %49, ptr %5, align 8
  store i32 1, ptr %13, align 4
  br label %50

50:                                               ; preds = %47, %41, %26, %23
  call void @llvm.lifetime.end.p0(i64 8, ptr %12) #9
  call void @llvm.lifetime.end.p0(i64 8, ptr %11) #9
  call void @llvm.lifetime.end.p0(i64 1, ptr %10) #9
  %51 = load ptr, ptr %5, align 8
  ret ptr %51
}