; Function Attrs: null_pointer_is_valid sspstrong uwtable
define internal ptr @bytes_to_repr(ptr noundef %0, ptr noundef readonly captures(none) %1, i32 noundef %2, i32 noundef %3) #0 {
  %5 = alloca i64, align 8
  call void @llvm.lifetime.start.p0(i64 8, ptr nonnull %5) #12
  %6 = getelementptr inbounds nuw i8, ptr %1, i64 8
  %7 = load ptr, ptr %6, align 8
  %8 = call ptr @g_bytes_get_data(ptr noundef %7, ptr noundef nonnull %5)
  %9 = icmp eq i32 %2, 1
  %10 = load i64, ptr %5, align 8
  %11 = icmp eq i64 %10, 0
  br i1 %9, label %12, label %23

12:                                               ; preds = %4
  br i1 %11, label %13, label %15

13:                                               ; preds = %12
  %14 = call noalias ptr @wmem_strdup(ptr noundef %0, ptr noundef nonnull @.str.20)
  br label %28

15:                                               ; preds = %12
  %16 = mul i64 %10, 3
  %17 = add i64 %16, 1
  %18 = call noalias ptr @wmem_alloc(ptr noundef %0, i64 noundef %17) #9
  %19 = call ptr @bytes_to_hexstr_punct(ptr noundef %18, ptr noundef %8, i64 noundef %10, i8 noundef signext 58)
  %20 = icmp eq i64 %10, 1
  br i1 %20, label %21, label %bytes_to_dfilter_repr.exit

21:                                               ; preds = %15
  %22 = getelementptr i8, ptr %19, i64 1
  store i8 58, ptr %19, align 1
  br label %bytes_to_dfilter_repr.exit

bytes_to_dfilter_repr.exit:                       ; preds = %15, %21
  %.0.i = phi ptr [ %22, %21 ], [ %19, %15 ]
  store i8 0, ptr %.0.i, align 1
  br label %28

23:                                               ; preds = %4
  br i1 %11, label %26, label %24

24:                                               ; preds = %23
  %trunc = trunc i32 %3 to i8
  %switch.selectcmp13 = icmp eq i8 %trunc, 8
  %switch.selectcmp = icmp eq i8 %trunc, 9
  %switch.select = select i1 %switch.selectcmp, i8 45, i8 58
  %switch.select14 = select i1 %switch.selectcmp13, i8 46, i8 %switch.select
  %25 = call ptr @bytes_to_str_punct_maxlen(ptr noundef %0, ptr noundef %8, i64 noundef %10, i8 noundef signext %switch.select14, i64 noundef 0)
  br label %28

26:                                               ; preds = %23
  %27 = call noalias ptr @wmem_strdup(ptr noundef %0, ptr noundef nonnull @.str.21)
  br label %28

28:                                               ; preds = %26, %24, %bytes_to_dfilter_repr.exit, %13
  %.0 = phi ptr [ %14, %13 ], [ %18, %bytes_to_dfilter_repr.exit ], [ %25, %24 ], [ %27, %26 ]
  call void @llvm.lifetime.end.p0(i64 8, ptr nonnull %5) #12
  ret ptr %.0
}